; Function Attrs: mustprogress uwtable
define void @_ZN7rocksdb19TransactionBaseImpl19SetSnapshotIfNeededEv(ptr noundef nonnull align 8 dereferenceable(400) %0) local_unnamed_addr #4 align 2 personality ptr @__gxx_personality_v0 {
  %2 = alloca %"class.std::shared_ptr", align 8
  %3 = getelementptr inbounds nuw i8, ptr %0, i64 377
  %4 = load i8, ptr %3, align 1, !tbaa !146, !range !56, !noundef !57
  %5 = trunc nuw i8 %4 to i1
  br i1 %5, label %6, label %59

6:                                                ; preds = %1
  call void @llvm.lifetime.start.p0(i64 16, ptr nonnull %2) #29
  %7 = getelementptr inbounds nuw i8, ptr %0, i64 384
  %8 = load ptr, ptr %7, align 8, !tbaa !47
  store ptr %8, ptr %2, align 8, !tbaa !47
  %9 = getelementptr inbounds nuw i8, ptr %2, i64 8
  %10 = getelementptr inbounds nuw i8, ptr %0, i64 392
  %11 = load ptr, ptr %10, align 8, !tbaa !20
  store ptr %11, ptr %9, align 8, !tbaa !20
  %.not.i.i.i = icmp eq ptr %11, null
  br i1 %.not.i.i.i, label %_ZNSt10shared_ptrIN7rocksdb19TransactionNotifierEEC2ERKS2_.exit, label %12

12:                                               ; preds = %6
  %13 = getelementptr inbounds nuw i8, ptr %11, i64 8
  %14 = load i8, ptr @__libc_single_threaded, align 1, !tbaa !17
  %.not.i.i.i.i = icmp eq i8 %14, 0
  br i1 %.not.i.i.i.i, label %18, label %15

15:                                               ; preds = %12
  %16 = load i32, ptr %13, align 4, !tbaa !29
  %17 = add nsw i32 %16, 1
  store i32 %17, ptr %13, align 4, !tbaa !29
  br label %_ZNSt10shared_ptrIN7rocksdb19TransactionNotifierEEC2ERKS2_.exit

18:                                               ; preds = %12
  %19 = atomicrmw volatile add ptr %13, i32 1 acq_rel, align 4
  br label %_ZNSt10shared_ptrIN7rocksdb19TransactionNotifierEEC2ERKS2_.exit

_ZNSt10shared_ptrIN7rocksdb19TransactionNotifierEEC2ERKS2_.exit: ; preds = %6, %15, %18
  %20 = load ptr, ptr %0, align 8, !tbaa !27
  %21 = getelementptr inbounds nuw i8, ptr %20, i64 16
  %22 = load ptr, ptr %21, align 8
  invoke void %22(ptr noundef nonnull align 8 dereferenceable(400) %0)
          to label %23 unwind label %34

23:                                               ; preds = %_ZNSt10shared_ptrIN7rocksdb19TransactionNotifierEEC2ERKS2_.exit
  %24 = load ptr, ptr %2, align 8, !tbaa !47
  %.not = icmp eq ptr %24, null
  br i1 %.not, label %36, label %25

25:                                               ; preds = %23
  %26 = load ptr, ptr %0, align 8, !tbaa !27
  %27 = getelementptr inbounds nuw i8, ptr %26, i64 32
  %28 = load ptr, ptr %27, align 8
  %29 = invoke noundef ptr %28(ptr noundef nonnull align 8 dereferenceable(400) %0)
          to label %30 unwind label %34

30:                                               ; preds = %25
  %31 = load ptr, ptr %24, align 8, !tbaa !27
  %32 = getelementptr inbounds nuw i8, ptr %31, i64 16
  %33 = load ptr, ptr %32, align 8
  invoke void %33(ptr noundef nonnull align 8 dereferenceable(8) %24, ptr noundef %29)
          to label %36 unwind label %34

34:                                               ; preds = %30, %25, %_ZNSt10shared_ptrIN7rocksdb19TransactionNotifierEEC2ERKS2_.exit
  %35 = landingpad { ptr, i32 }
          cleanup
  call void @_ZNSt12__shared_ptrIN7rocksdb19TransactionNotifierELN9__gnu_cxx12_Lock_policyE2EED2Ev(ptr noundef nonnull align 8 dereferenceable(16) %2) #29
  call void @llvm.lifetime.end.p0(i64 16, ptr nonnull %2) #29
  resume { ptr, i32 } %35

36:                                               ; preds = %30, %23
  %37 = load ptr, ptr %9, align 8, !tbaa !20
  %.not.i.i = icmp eq ptr %37, null
  br i1 %.not.i.i, label %_ZNSt12__shared_ptrIN7rocksdb19TransactionNotifierELN9__gnu_cxx12_Lock_policyE2EED2Ev.exit, label %38

38:                                               ; preds = %36
  %39 = getelementptr inbounds nuw i8, ptr %37, i64 8
  %40 = load atomic i64, ptr %39 acquire, align 8
  %41 = icmp eq i64 %40, 4294967297
  %42 = trunc i64 %40 to i32
  br i1 %41, label %43, label %51

43:                                               ; preds = %38
  store i32 0, ptr %39, align 8, !tbaa !23
  %44 = getelementptr inbounds nuw i8, ptr %37, i64 12
  store i32 0, ptr %44, align 4, !tbaa !26
  %45 = load ptr, ptr %37, align 8, !tbaa !27
  %46 = getelementptr inbounds nuw i8, ptr %45, i64 16
  %47 = load ptr, ptr %46, align 8
  tail call void %47(ptr noundef nonnull align 8 dereferenceable(16) %37) #29
  %48 = load ptr, ptr %37, align 8, !tbaa !27
  %49 = getelementptr inbounds nuw i8, ptr %48, i64 24
  %50 = load ptr, ptr %49, align 8
  tail call void %50(ptr noundef nonnull align 8 dereferenceable(16) %37) #29
  br label %_ZNSt12__shared_ptrIN7rocksdb19TransactionNotifierELN9__gnu_cxx12_Lock_policyE2EED2Ev.exit

51:                                               ; preds = %38
  %52 = load i8, ptr @__libc_single_threaded, align 1, !tbaa !17
  %.not.i.i.i2 = icmp eq i8 %52, 0
  br i1 %.not.i.i.i2, label %55, label %53

53:                                               ; preds = %51
  %54 = add nsw i32 %42, -1
  store i32 %54, ptr %39, align 4, !tbaa !29
  br label %_ZN9__gnu_cxx27__exchange_and_add_dispatchEPii.exit.i.i.i

55:                                               ; preds = %51
  %56 = atomicrmw volatile add ptr %39, i32 -1 acq_rel, align 4
  br label %_ZN9__gnu_cxx27__exchange_and_add_dispatchEPii.exit.i.i.i

_ZN9__gnu_cxx27__exchange_and_add_dispatchEPii.exit.i.i.i: ; preds = %55, %53
  %.0.i.i.i.i = phi i32 [ %42, %53 ], [ %56, %55 ]
  %57 = icmp eq i32 %.0.i.i.i.i, 1
  br i1 %57, label %58, label %_ZNSt12__shared_ptrIN7rocksdb19TransactionNotifierELN9__gnu_cxx12_Lock_policyE2EED2Ev.exit, !prof !30

58:                                               ; preds = %_ZN9__gnu_cxx27__exchange_and_add_dispatchEPii.exit.i.i.i
  tail call void @_ZNSt16_Sp_counted_baseILN9__gnu_cxx12_Lock_policyE2EE24_M_release_last_use_coldEv(ptr noundef nonnull align 8 dereferenceable(16) %37) #29
  br label %_ZNSt12__shared_ptrIN7rocksdb19TransactionNotifierELN9__gnu_cxx12_Lock_policyE2EED2Ev.exit

_ZNSt12__shared_ptrIN7rocksdb19TransactionNotifierELN9__gnu_cxx12_Lock_policyE2EED2Ev.exit: ; preds = %36, %43, %_ZN9__gnu_cxx27__exchange_and_add_dispatchEPii.exit.i.i.i, %58
  call void @llvm.lifetime.end.p0(i64 16, ptr nonnull %2) #29
  br label %59

59:                                               ; preds = %_ZNSt12__shared_ptrIN7rocksdb19TransactionNotifierELN9__gnu_cxx12_Lock_policyE2EED2Ev.exit, %1
  ret void
}